; Function Attrs: null_pointer_is_valid sspstrong uwtable
define noundef ptr @wtap_block_make_copy(ptr noundef %0) local_unnamed_addr #0 {
  %2 = load ptr, ptr %0, align 8
  %3 = load i32, ptr %2, align 8
  %4 = icmp ugt i32 %3, 11
  br i1 %4, label %wtap_block_create.exit, label %5

5:                                                ; preds = %1
  %6 = tail call noalias dereferenceable_or_null(32) ptr @g_malloc(i64 noundef 32) #16
  %7 = zext nneg i32 %3 to i64
  %8 = getelementptr [12 x ptr], ptr @blocktype_list, i64 0, i64 %7
  %9 = load ptr, ptr %8, align 8
  store ptr %9, ptr %6, align 8
  %10 = tail call ptr @g_array_new(i32 noundef 0, i32 noundef 0, i32 noundef 48)
  %11 = getelementptr inbounds nuw i8, ptr %6, i64 16
  store ptr %10, ptr %11, align 8
  %12 = getelementptr inbounds nuw i8, ptr %9, i64 24
  %13 = load ptr, ptr %12, align 8
  tail call void %13(ptr noundef %6)
  %14 = getelementptr inbounds nuw i8, ptr %6, i64 24
  store i32 1, ptr %14, align 8
  br label %wtap_block_create.exit

wtap_block_create.exit:                           ; preds = %1, %5
  %.0.i = phi ptr [ %6, %5 ], [ null, %1 ]
  tail call void @wtap_block_copy(ptr noundef %.0.i, ptr noundef %0)
  ret ptr %.0.i
}